(lp1
(lp2
F1.2006453352169295
aF1.2006453352169295
aF1.2006453352169295
aF1.6008604469559058
aF1.6008604469559058
aF1.6008604469559058
aa(lp3
F1.2006453352169295
aF1.2006453352169295
aF1.2006453352169295
aF1.2006453352169295
aF1.2006453352169295
aF1.2006453352169295
aa(lp4
F1.2006453352169295
aF1.2006453352169295
aF1.2006453352169295
aF2.0010755586948821
aF2.0010755586948821
aF2.0010755586948821
aa(lp5
F0.8004302234779529
aF0.8004302234779529
aF0.8004302234779529
aF1.2006453352169295
aF1.2006453352169295
aF1.2006453352169295
aa(lp6
F0.8004302234779529
aF0.8004302234779529
aF0.8004302234779529
aF0.8004302234779529
aF0.8004302234779529
aF0.8004302234779529
aa(lp7
F1.2006453352169295
aF1.2006453352169295
aF1.2006453352169295
aF0.8004302234779529
aF0.8004302234779529
aF0.8004302234779529
aa(lp8
F1.6008604469559058
aF1.6008604469559058
aF1.6008604469559058
aF1.6008604469559058
aF1.6008604469559058
aF1.6008604469559058
aa(lp9
F1.2006453352169295
aF1.2006453352169295
aF1.2006453352169295
aF4.0021511173897641
aF4.0021511173897641
aF4.0021511173897641
aa(lp10
F1.6008604469559058
aF1.6008604469559058
aF1.6008604469559058
aF2.0010755586948821
aF2.0010755586948821
aF2.0010755586948821
aa(lp11
F1.6008604469559058
aF1.6008604469559058
aF1.6008604469559058
aF1.2006453352169295
aF1.2006453352169295
aF1.2006453352169295
aa(lp12
F2.401290670433859
aF2.401290670433859
aF2.401290670433859
aF2.8015057821728355
aF2.8015057821728355
aF2.8015057821728355
aa(lp13
F0.40021511173897645
aF0.40021511173897645
aF0.40021511173897645
aF0.8004302234779529
aF0.8004302234779529
aF0.8004302234779529
aa(lp14
F0.40021511173897645
aF0.40021511173897645
aF0.40021511173897645
aF2.8015057821728355
aF2.8015057821728355
aF2.8015057821728355
aa(lp15
F0.8004302234779529
aF0.8004302234779529
aF0.8004302234779529
aF1.6008604469559058
aF1.6008604469559058
aF1.6008604469559058
aa(lp16
F0.40021511173897645
aF0.40021511173897645
aF0.40021511173897645
aF3.2017208939118116
aF3.2017208939118116
aF3.2017208939118116
aa(lp17
F2.0010755586948821
aF2.0010755586948821
aF2.0010755586948821
aF1.2006453352169295
aF1.2006453352169295
aF1.2006453352169295
aa(lp18
F1.6008604469559058
aF1.6008604469559058
aF1.6008604469559058
aF2.401290670433859
aF2.401290670433859
aF2.401290670433859
aa(lp19
F1.6008604469559058
aF1.6008604469559058
aF1.6008604469559058
aF4.802581340867718
aF4.802581340867718
aF4.802581340867718
aa(lp20
F0.40021511173897645
aF0.40021511173897645
aF0.40021511173897645
aF1.2006453352169295
aF1.2006453352169295
aF1.2006453352169295
aa(lp21
F1.2006453352169295
aF1.2006453352169295
aF1.2006453352169295
aF4.802581340867718
aF4.802581340867718
aF4.802581340867718
aa.