(lp1
(lp2
F0.91787183710437359
aF0.91787183710437359
aF0.91787183710437359
aF0.91787183710437359
aF0.91787183710437359
aF0.91787183710437359
aa(lp3
F1.2238291161391646
aF1.2238291161391646
aF1.2238291161391646
aF1.2238291161391646
aF1.2238291161391646
aF1.2238291161391646
aa(lp4
F0.91787183710437359
aF0.91787183710437359
aF0.91787183710437359
aF1.2238291161391646
aF1.2238291161391646
aF1.2238291161391646
aa(lp5
F1.2238291161391646
aF1.2238291161391646
aF1.2238291161391646
aF0.91787183710437359
aF0.91787183710437359
aF0.91787183710437359
aa(lp6
F0.61191455806958228
aF0.61191455806958228
aF0.61191455806958228
aF0.91787183710437359
aF0.91787183710437359
aF0.91787183710437359
aa(lp7
F1.2238291161391646
aF1.2238291161391646
aF1.2238291161391646
aF1.5297863951739556
aF1.5297863951739556
aF1.5297863951739556
aa(lp8
F0.91787183710437359
aF0.91787183710437359
aF0.91787183710437359
aF0.61191455806958228
aF0.61191455806958228
aF0.61191455806958228
aa(lp9
F0.91787183710437359
aF0.91787183710437359
aF0.91787183710437359
aF1.5297863951739556
aF1.5297863951739556
aF1.5297863951739556
aa(lp10
F0.61191455806958228
aF0.61191455806958228
aF0.61191455806958228
aF0.61191455806958228
aF0.61191455806958228
aF0.61191455806958228
aa(lp11
F0.30595727903479114
aF0.30595727903479114
aF0.30595727903479114
aF2.1417009532435385
aF2.1417009532435385
aF2.1417009532435385
aa(lp12
F0.61191455806958228
aF0.61191455806958228
aF0.61191455806958228
aF1.2238291161391646
aF1.2238291161391646
aF1.2238291161391646
aa(lp13
F0.91787183710437359
aF0.91787183710437359
aF0.91787183710437359
aF1.8357436742087472
aF1.8357436742087472
aF1.8357436742087472
aa(lp14
F1.2238291161391646
aF1.2238291161391646
aF1.2238291161391646
aF3.0595727903479113
aF3.0595727903479113
aF3.0595727903479113
aa(lp15
F0.30595727903479114
aF0.30595727903479114
aF0.30595727903479114
aF1.8357436742087472
aF1.8357436742087472
aF1.8357436742087472
aa(lp16
F1.5297863951739556
aF1.5297863951739556
aF1.5297863951739556
aF0.91787183710437359
aF0.91787183710437359
aF0.91787183710437359
aa(lp17
F0.91787183710437359
aF0.91787183710437359
aF0.91787183710437359
aF3.0595727903479113
aF3.0595727903479113
aF3.0595727903479113
aa(lp18
F1.2238291161391646
aF1.2238291161391646
aF1.2238291161391646
aF3.6714873484174944
aF3.6714873484174944
aF3.6714873484174944
aa(lp19
F2.1417009532435385
aF2.1417009532435385
aF2.1417009532435385
aF2.1417009532435385
aF2.1417009532435385
aF2.1417009532435385
aa(lp20
F2.1417009532435385
aF2.1417009532435385
aF2.1417009532435385
aF1.8357436742087472
aF1.8357436742087472
aF1.8357436742087472
aa(lp21
F0.30595727903479114
aF0.30595727903479114
aF0.30595727903479114
aF0.91787183710437359
aF0.91787183710437359
aF0.91787183710437359
aa.