(lp1
(lp2
F1.2104464340896965
aF1.2104464340896965
aF1.2104464340896965
aF1.2104464340896965
aF1.2104464340896965
aF1.2104464340896965
aa(lp3
F1.2104464340896965
aF1.2104464340896965
aF1.2104464340896965
aF1.8156696511345451
aF1.8156696511345451
aF1.8156696511345451
aa(lp4
F1.2104464340896965
aF1.2104464340896965
aF1.2104464340896965
aF2.1182812596569693
aF2.1182812596569693
aF2.1182812596569693
aa(lp5
F0.90783482556727257
aF0.90783482556727257
aF0.90783482556727257
aF1.2104464340896965
aF1.2104464340896965
aF1.2104464340896965
aa(lp6
F1.5130580426121207
aF1.5130580426121207
aF1.5130580426121207
aF1.8156696511345451
aF1.8156696511345451
aF1.8156696511345451
aa(lp7
F1.2104464340896965
aF1.2104464340896965
aF1.2104464340896965
aF0.90783482556727257
aF0.90783482556727257
aF0.90783482556727257
aa(lp8
F1.5130580426121207
aF1.5130580426121207
aF1.5130580426121207
aF2.1182812596569693
aF2.1182812596569693
aF2.1182812596569693
aa(lp9
F0.90783482556727257
aF0.90783482556727257
aF0.90783482556727257
aF0.90783482556727257
aF0.90783482556727257
aF0.90783482556727257
aa(lp10
F1.2104464340896965
aF1.2104464340896965
aF1.2104464340896965
aF1.5130580426121207
aF1.5130580426121207
aF1.5130580426121207
aa(lp11
F10.288794689762423
aF10.288794689762423
aF10.288794689762423
aF11.801852732374542
aF11.801852732374542
aF11.801852732374542
aa(lp12
F1.5130580426121207
aF1.5130580426121207
aF1.5130580426121207
aF1.2104464340896965
aF1.2104464340896965
aF1.2104464340896965
aa(lp13
F9.9861830812399965
aF9.9861830812399965
aF9.9861830812399965
aF6.0522321704484829
aF6.0522321704484829
aF6.0522321704484829
aa(lp14
F1.2104464340896965
aF1.2104464340896965
aF1.2104464340896965
aF3.0261160852242415
aF3.0261160852242415
aF3.0261160852242415
aa(lp15
F5.4470089534036346
aF5.4470089534036346
aF5.4470089534036346
aF13.617522383509089
aF13.617522383509089
aF13.617522383509089
aa(lp16
F7.2626786045381806
aF7.2626786045381806
aF7.2626786045381806
aF9.9861830812399965
aF9.9861830812399965
aF9.9861830812399965
aa(lp17
F7.2626786045381806
aF7.2626786045381806
aF7.2626786045381806
aF32.379442111899387
aF32.379442111899387
aF32.379442111899387
aa(lp18
F6.354843778970908
aF6.354843778970908
aF6.354843778970908
aF43.273460018706658
aF43.273460018706658
aF43.273460018706658
aa(lp19
F8.4731250386278774
aF8.4731250386278774
aF8.4731250386278774
aF25.721986724406054
aF25.721986724406054
aF25.721986724406054
aa(lp20
F6.354843778970908
aF6.354843778970908
aF6.354843778970908
aF18.459308119867874
aF18.459308119867874
aF18.459308119867874
aa(lp21
F4.2365625193139387
aF4.2365625193139387
aF4.2365625193139387
aF7.8679018215830281
aF7.8679018215830281
aF7.8679018215830281
aa.