(lp1
(lp2
F1.4733174819748389
aF1.4733174819748389
aF1.4733174819748389
aF3.4377407912746238
aF3.4377407912746238
aF3.4377407912746238
aa(lp3
F0.98221165464989235
aF0.98221165464989235
aF0.98221165464989235
aF1.9644233092997847
aF1.9644233092997847
aF1.9644233092997847
aa(lp4
F1.4733174819748389
aF1.4733174819748389
aF1.4733174819748389
aF2.9466349639496778
aF2.9466349639496778
aF2.9466349639496778
aa(lp5
F0.98221165464989235
aF0.98221165464989235
aF0.98221165464989235
aF1.4733174819748389
aF1.4733174819748389
aF1.4733174819748389
aa(lp6
F1.4733174819748389
aF1.4733174819748389
aF1.4733174819748389
aF2.4555291366247309
aF2.4555291366247309
aF2.4555291366247309
aa(lp7
F1.4733174819748389
aF1.4733174819748389
aF1.4733174819748389
aF1.4733174819748389
aF1.4733174819748389
aF1.4733174819748389
aa(lp8
F1.4733174819748389
aF1.4733174819748389
aF1.4733174819748389
aF4.4199524459245154
aF4.4199524459245154
aF4.4199524459245154
aa(lp9
F1.9644233092997847
aF1.9644233092997847
aF1.9644233092997847
aF2.4555291366247309
aF2.4555291366247309
aF2.4555291366247309
aa(lp10
F0.98221165464989235
aF0.98221165464989235
aF0.98221165464989235
aF2.9466349639496778
aF2.9466349639496778
aF2.9466349639496778
aa(lp11
F20.135338920322791
aF20.135338920322791
aF20.135338920322791
aF33.395196258096341
aF33.395196258096341
aF33.395196258096341
aa(lp12
F21.60865640229763
aF21.60865640229763
aF21.60865640229763
aF28.484137984846878
aF28.484137984846878
aF28.484137984846878
aa(lp13
F8.3487990645240853
aF8.3487990645240853
aF8.3487990645240853
aF25.046397193572258
aF25.046397193572258
aF25.046397193572258
aa(lp14
F5.8932699278993557
aF5.8932699278993557
aF5.8932699278993557
aF19.1531272656729
aF19.1531272656729
aF19.1531272656729
aa(lp15
F15.715386474398278
aF15.715386474398278
aF15.715386474398278
aF79.068038199316334
aF79.068038199316334
aF79.068038199316334
aa(lp16
F17.188703956373118
aF17.188703956373118
aF17.188703956373118
aF110.49881114811291
aF110.49881114811291
aF110.49881114811291
aa(lp17
F9.8221165464989237
aF9.8221165464989237
aF9.8221165464989237
aF84.470202299890744
aF84.470202299890744
aF84.470202299890744
aa(lp18
F23.573079711597423
aF23.573079711597423
aF23.573079711597423
aF34.377407912746236
aF34.377407912746236
aF34.377407912746236
aa(lp19
F11.295434028473762
aF11.295434028473762
aF11.295434028473762
aF35.850725394721074
aF35.850725394721074
aF35.850725394721074
aa(lp20
F1.9644233092997847
aF1.9644233092997847
aF1.9644233092997847
aF1.9644233092997847
aF1.9644233092997847
aF1.9644233092997847
aa(lp21
F15.224280647073334
aF15.224280647073334
aF15.224280647073334
aF28.975243812171826
aF28.975243812171826
aF28.975243812171826
aa.